; ModuleID = '17/1384.c'
source_filename = "17/1384.c"
target datalayout = "e-m:e-p270:32:32-p271:32:32-p272:64:64-i64:64-f80:128-n8:16:32:64-S128"
target triple = "x86_64-pc-linux-gnu"

@.str = private unnamed_addr constant [3 x i8] c"%s\00", align 1

; Function Attrs: noinline nounwind uwtable
define dso_local i32 @main() #0 {
  %1 = alloca i32, align 4
  %2 = alloca [10 x [20 x i8]], align 16
  %3 = alloca [10 x [20 x i8]], align 16
  %4 = alloca i32, align 4
  %5 = alloca i32, align 4
  %6 = alloca i32, align 4
  %7 = alloca i32, align 4
  store i32 0, i32* %1, align 4
  store i32 0, i32* %7, align 4
  br label %8

8:                                                ; preds = %159, %0
  %9 = load i32, i32* %7, align 4
  %10 = sext i32 %9 to i64
  %11 = getelementptr inbounds [10 x [20 x i8]], [10 x [20 x i8]]* %2, i64 0, i64 %10
  %12 = getelementptr inbounds [20 x i8], [20 x i8]* %11, i64 0, i64 0
  %13 = call i32 (i8*, ...) @__isoc99_scanf(i8* getelementptr inbounds ([3 x i8], [3 x i8]* @.str, i64 0, i64 0), i8* %12)
  %14 = icmp ne i32 %13, -1
  br i1 %14, label %15, label %172

15:                                               ; preds = %8
  %16 = load i32, i32* %7, align 4
  %17 = sext i32 %16 to i64
  %18 = getelementptr inbounds [10 x [20 x i8]], [10 x [20 x i8]]* %3, i64 0, i64 %17
  %19 = getelementptr inbounds [20 x i8], [20 x i8]* %18, i64 0, i64 0
  %20 = load i32, i32* %7, align 4
  %21 = sext i32 %20 to i64
  %22 = getelementptr inbounds [10 x [20 x i8]], [10 x [20 x i8]]* %2, i64 0, i64 %21
  %23 = getelementptr inbounds [20 x i8], [20 x i8]* %22, i64 0, i64 0
  %24 = call i8* @strcpy(i8* %19, i8* %23) #3
  store i32 0, i32* %5, align 4
  br label %25

25:                                               ; preds = %106, %15
  %26 = load i32, i32* %7, align 4
  %27 = sext i32 %26 to i64
  %28 = getelementptr inbounds [10 x [20 x i8]], [10 x [20 x i8]]* %2, i64 0, i64 %27
  %29 = load i32, i32* %5, align 4
  %30 = sext i32 %29 to i64
  %31 = getelementptr inbounds [20 x i8], [20 x i8]* %28, i64 0, i64 %30
  %32 = load i8, i8* %31, align 1
  %33 = sext i8 %32 to i32
  %34 = icmp ne i32 %33, 0
  br i1 %34, label %35, label %109

35:                                               ; preds = %25
  %36 = load i32, i32* %7, align 4
  %37 = sext i32 %36 to i64
  %38 = getelementptr inbounds [10 x [20 x i8]], [10 x [20 x i8]]* %2, i64 0, i64 %37
  %39 = load i32, i32* %5, align 4
  %40 = sext i32 %39 to i64
  %41 = getelementptr inbounds [20 x i8], [20 x i8]* %38, i64 0, i64 %40
  %42 = load i8, i8* %41, align 1
  %43 = sext i8 %42 to i32
  %44 = icmp ne i32 %43, 40
  br i1 %44, label %45, label %62

45:                                               ; preds = %35
  %46 = load i32, i32* %7, align 4
  %47 = sext i32 %46 to i64
  %48 = getelementptr inbounds [10 x [20 x i8]], [10 x [20 x i8]]* %2, i64 0, i64 %47
  %49 = load i32, i32* %5, align 4
  %50 = sext i32 %49 to i64
  %51 = getelementptr inbounds [20 x i8], [20 x i8]* %48, i64 0, i64 %50
  %52 = load i8, i8* %51, align 1
  %53 = sext i8 %52 to i32
  %54 = icmp ne i32 %53, 41
  br i1 %54, label %55, label %62

55:                                               ; preds = %45
  %56 = load i32, i32* %7, align 4
  %57 = sext i32 %56 to i64
  %58 = getelementptr inbounds [10 x [20 x i8]], [10 x [20 x i8]]* %3, i64 0, i64 %57
  %59 = load i32, i32* %5, align 4
  %60 = sext i32 %59 to i64
  %61 = getelementptr inbounds [20 x i8], [20 x i8]* %58, i64 0, i64 %60
  store i8 32, i8* %61, align 1
  br label %62

62:                                               ; preds = %55, %45, %35
  %63 = load i32, i32* %7, align 4
  %64 = sext i32 %63 to i64
  %65 = getelementptr inbounds [10 x [20 x i8]], [10 x [20 x i8]]* %3, i64 0, i64 %64
  %66 = load i32, i32* %5, align 4
  %67 = sext i32 %66 to i64
  %68 = getelementptr inbounds [20 x i8], [20 x i8]* %65, i64 0, i64 %67
  %69 = load i8, i8* %68, align 1
  %70 = sext i8 %69 to i32
  %71 = icmp eq i32 %70, 41
  br i1 %71, label %72, label %105

72:                                               ; preds = %62
  %73 = load i32, i32* %5, align 4
  store i32 %73, i32* %6, align 4
  br label %74

74:                                               ; preds = %101, %72
  %75 = load i32, i32* %6, align 4
  %76 = icmp sgt i32 %75, -1
  br i1 %76, label %77, label %104

77:                                               ; preds = %74
  %78 = load i32, i32* %7, align 4
  %79 = sext i32 %78 to i64
  %80 = getelementptr inbounds [10 x [20 x i8]], [10 x [20 x i8]]* %3, i64 0, i64 %79
  %81 = load i32, i32* %6, align 4
  %82 = sext i32 %81 to i64
  %83 = getelementptr inbounds [20 x i8], [20 x i8]* %80, i64 0, i64 %82
  %84 = load i8, i8* %83, align 1
  %85 = sext i8 %84 to i32
  %86 = icmp eq i32 %85, 40
  br i1 %86, label %87, label %100

87:                                               ; preds = %77
  %88 = load i32, i32* %7, align 4
  %89 = sext i32 %88 to i64
  %90 = getelementptr inbounds [10 x [20 x i8]], [10 x [20 x i8]]* %3, i64 0, i64 %89
  %91 = load i32, i32* %6, align 4
  %92 = sext i32 %91 to i64
  %93 = getelementptr inbounds [20 x i8], [20 x i8]* %90, i64 0, i64 %92
  store i8 32, i8* %93, align 1
  %94 = load i32, i32* %7, align 4
  %95 = sext i32 %94 to i64
  %96 = getelementptr inbounds [10 x [20 x i8]], [10 x [20 x i8]]* %3, i64 0, i64 %95
  %97 = load i32, i32* %5, align 4
  %98 = sext i32 %97 to i64
  %99 = getelementptr inbounds [20 x i8], [20 x i8]* %96, i64 0, i64 %98
  store i8 32, i8* %99, align 1
  br label %104

100:                                              ; preds = %77
  br label %101

101:                                              ; preds = %100
  %102 = load i32, i32* %6, align 4
  %103 = add nsw i32 %102, -1
  store i32 %103, i32* %6, align 4
  br label %74

104:                                              ; preds = %87, %74
  br label %105

105:                                              ; preds = %104, %62
  br label %106

106:                                              ; preds = %105
  %107 = load i32, i32* %5, align 4
  %108 = add nsw i32 %107, 1
  store i32 %108, i32* %5, align 4
  br label %25

109:                                              ; preds = %25
  store i32 0, i32* %5, align 4
  br label %110

110:                                              ; preds = %156, %109
  %111 = load i32, i32* %7, align 4
  %112 = sext i32 %111 to i64
  %113 = getelementptr inbounds [10 x [20 x i8]], [10 x [20 x i8]]* %3, i64 0, i64 %112
  %114 = load i32, i32* %5, align 4
  %115 = sext i32 %114 to i64
  %116 = getelementptr inbounds [20 x i8], [20 x i8]* %113, i64 0, i64 %115
  %117 = load i8, i8* %116, align 1
  %118 = sext i8 %117 to i32
  %119 = icmp ne i32 %118, 0
  br i1 %119, label %120, label %159

120:                                              ; preds = %110
  %121 = load i32, i32* %7, align 4
  %122 = sext i32 %121 to i64
  %123 = getelementptr inbounds [10 x [20 x i8]], [10 x [20 x i8]]* %3, i64 0, i64 %122
  %124 = load i32, i32* %5, align 4
  %125 = sext i32 %124 to i64
  %126 = getelementptr inbounds [20 x i8], [20 x i8]* %123, i64 0, i64 %125
  %127 = load i8, i8* %126, align 1
  %128 = sext i8 %127 to i32
  %129 = icmp eq i32 %128, 40
  br i1 %129, label %130, label %137

130:                                              ; preds = %120
  %131 = load i32, i32* %7, align 4
  %132 = sext i32 %131 to i64
  %133 = getelementptr inbounds [10 x [20 x i8]], [10 x [20 x i8]]* %3, i64 0, i64 %132
  %134 = load i32, i32* %5, align 4
  %135 = sext i32 %134 to i64
  %136 = getelementptr inbounds [20 x i8], [20 x i8]* %133, i64 0, i64 %135
  store i8 36, i8* %136, align 1
  br label %155

137:                                              ; preds = %120
  %138 = load i32, i32* %7, align 4
  %139 = sext i32 %138 to i64
  %140 = getelementptr inbounds [10 x [20 x i8]], [10 x [20 x i8]]* %3, i64 0, i64 %139
  %141 = load i32, i32* %5, align 4
  %142 = sext i32 %141 to i64
  %143 = getelementptr inbounds [20 x i8], [20 x i8]* %140, i64 0, i64 %142
  %144 = load i8, i8* %143, align 1
  %145 = sext i8 %144 to i32
  %146 = icmp eq i32 %145, 41
  br i1 %146, label %147, label %154

147:                                              ; preds = %137
  %148 = load i32, i32* %7, align 4
  %149 = sext i32 %148 to i64
  %150 = getelementptr inbounds [10 x [20 x i8]], [10 x [20 x i8]]* %3, i64 0, i64 %149
  %151 = load i32, i32* %5, align 4
  %152 = sext i32 %151 to i64
  %153 = getelementptr inbounds [20 x i8], [20 x i8]* %150, i64 0, i64 %152
  store i8 63, i8* %153, align 1
  br label %154

154:                                              ; preds = %147, %137
  br label %155

155:                                              ; preds = %154, %130
  br label %156

156:                                              ; preds = %155
  %157 = load i32, i32* %5, align 4
  %158 = add nsw i32 %157, 1
  store i32 %158, i32* %5, align 4
  br label %110

159:                                              ; preds = %110
  %160 = load i32, i32* %7, align 4
  %161 = sext i32 %160 to i64
  %162 = getelementptr inbounds [10 x [20 x i8]], [10 x [20 x i8]]* %2, i64 0, i64 %161
  %163 = getelementptr inbounds [20 x i8], [20 x i8]* %162, i64 0, i64 0
  %164 = call i32 @puts(i8* %163)
  %165 = load i32, i32* %7, align 4
  %166 = sext i32 %165 to i64
  %167 = getelementptr inbounds [10 x [20 x i8]], [10 x [20 x i8]]* %3, i64 0, i64 %166
  %168 = getelementptr inbounds [20 x i8], [20 x i8]* %167, i64 0, i64 0
  %169 = call i32 @puts(i8* %168)
  %170 = load i32, i32* %7, align 4
  %171 = add nsw i32 %170, 1
  store i32 %171, i32* %7, align 4
  br label %8

172:                                              ; preds = %8
  ret i32 0
}

declare dso_local i32 @__isoc99_scanf(i8*, ...) #1

; Function Attrs: nounwind
declare dso_local i8* @strcpy(i8*, i8*) #2

declare dso_local i32 @puts(i8*) #1


!llvm.module.flags = !{!0}
!llvm.ident = !{!1}

!0 = !{i32 1, !"wchar_size", i32 4}
!1 = !{!"clang version 10.0.0-4ubuntu1 "}
